; Function Attrs: nofree norecurse nosync nounwind memory(read, argmem: readwrite, inaccessiblemem: none) uwtable
define hidden range(i32 -100, 1) i32 @mbedtls_asn1_get_tag(ptr noundef captures(none) %0, ptr noundef %1, ptr noundef writeonly captures(none) %2, i32 noundef %3) local_unnamed_addr #0 {
  %5 = load ptr, ptr %0, align 8, !tbaa !3
  %6 = ptrtoint ptr %1 to i64
  %7 = ptrtoint ptr %5 to i64
  %8 = sub i64 %6, %7
  %9 = icmp slt i64 %8, 1
  br i1 %9, label %mbedtls_asn1_get_len.exit, label %10

10:                                               ; preds = %4
  %11 = load i8, ptr %5, align 1, !tbaa !8
  %12 = zext i8 %11 to i32
  %.not = icmp eq i32 %3, %12
  br i1 %.not, label %13, label %mbedtls_asn1_get_len.exit

13:                                               ; preds = %10
  %14 = getelementptr inbounds nuw i8, ptr %5, i64 1
  store ptr %14, ptr %0, align 8, !tbaa !3
  %15 = ptrtoint ptr %14 to i64
  %16 = sub i64 %6, %15
  %17 = icmp slt i64 %16, 1
  br i1 %17, label %mbedtls_asn1_get_len.exit, label %18

18:                                               ; preds = %13
  %19 = load i8, ptr %14, align 1, !tbaa !8
  %20 = icmp sgt i8 %19, -1
  br i1 %20, label %21, label %25

21:                                               ; preds = %18
  %22 = getelementptr inbounds nuw i8, ptr %5, i64 2
  store ptr %22, ptr %0, align 8, !tbaa !3
  %23 = load i8, ptr %14, align 1, !tbaa !8
  %24 = zext i8 %23 to i64
  store i64 %24, ptr %2, align 8, !tbaa !9
  br label %.loopexit.i

25:                                               ; preds = %18
  %26 = and i8 %19, 127
  %27 = zext nneg i8 %26 to i32
  %28 = add nsw i8 %26, -5
  %or.cond.i = icmp ult i8 %28, -4
  br i1 %or.cond.i, label %mbedtls_asn1_get_len.exit, label %29

29:                                               ; preds = %25
  %30 = zext nneg i8 %26 to i64
  %.not.i = icmp samesign ugt i64 %16, %30
  br i1 %.not.i, label %.lr.ph.preheader.i, label %mbedtls_asn1_get_len.exit

.lr.ph.preheader.i:                               ; preds = %29
  store i64 0, ptr %2, align 8, !tbaa !9
  %storemerge32.i = getelementptr inbounds nuw i8, ptr %5, i64 2
  store ptr %storemerge32.i, ptr %0, align 8, !tbaa !3
  br label %.lr.ph.i

.lr.ph.i:                                         ; preds = %.lr.ph.i, %.lr.ph.preheader.i
  %storemerge36.i = phi ptr [ %storemerge.i, %.lr.ph.i ], [ %storemerge32.i, %.lr.ph.preheader.i ]
  %.02335.i = phi i32 [ %31, %.lr.ph.i ], [ %27, %.lr.ph.preheader.i ]
  %storemerge3134.i = phi i64 [ %35, %.lr.ph.i ], [ 0, %.lr.ph.preheader.i ]
  %31 = add nsw i32 %.02335.i, -1
  %32 = shl i64 %storemerge3134.i, 8
  %33 = load i8, ptr %storemerge36.i, align 1, !tbaa !8
  %34 = zext i8 %33 to i64
  %35 = or disjoint i64 %32, %34
  store i64 %35, ptr %2, align 8, !tbaa !9
  %storemerge.i = getelementptr inbounds nuw i8, ptr %storemerge36.i, i64 1
  store ptr %storemerge.i, ptr %0, align 8, !tbaa !3
  %.not27.i = icmp eq i32 %31, 0
  br i1 %.not27.i, label %.loopexit.i, label %.lr.ph.i, !llvm.loop !11

.loopexit.i:                                      ; preds = %.lr.ph.i, %21
  %36 = phi ptr [ %22, %21 ], [ %storemerge.i, %.lr.ph.i ]
  %37 = phi i64 [ %24, %21 ], [ %35, %.lr.ph.i ]
  %38 = ptrtoint ptr %36 to i64
  %39 = sub i64 %6, %38
  %40 = icmp ugt i64 %37, %39
  %..i = select i1 %40, i32 -96, i32 0
  br label %mbedtls_asn1_get_len.exit

mbedtls_asn1_get_len.exit:                        ; preds = %.loopexit.i, %29, %25, %13, %10, %4
  %.0 = phi i32 [ -96, %4 ], [ -98, %10 ], [ -96, %13 ], [ %..i, %.loopexit.i ], [ -96, %29 ], [ -100, %25 ]
  ret i32 %.0
}